target datalayout = "e-m:e-p270:32:32-p271:32:32-p272:64:64-i64:64-i128:128-f80:128-n8:16:32:64-S128"
target triple = "x86_64-pc-linux-gnu"

%class.ShenandoahPhaseTimings = type { i32, [316 x double], [316 x %class.HdrSeq], [316 x ptr], ptr }
%class.HdrSeq = type { %class.NumberSeq, ptr }
%class.NumberSeq = type { %class.AbsSeq, double, double }
%class.AbsSeq = type { ptr, i32, double, double, double, double, double }
%class.WorkerDataArray = type { ptr, i32, ptr, ptr, i8, [9 x ptr] }

@.str.287 = private unnamed_addr constant [82 x i8] c"All times are wall-clock times, except per-root-class counters, that are sum over\00", align 1
@.str.288 = private unnamed_addr constant [82 x i8] c"all workers. Dividing the <total> over the root stage time estimates parallelism.\00", align 1
@.str.289 = private unnamed_addr constant [16 x i8] c"%-30s %8.0lf us\00", align 1
@.str.290 = private unnamed_addr constant [23 x i8] c", parallelism: %4.2lfx\00", align 1
@.str.291 = private unnamed_addr constant [17 x i8] c", workers (us): \00", align 1
@.str.292 = private unnamed_addr constant [9 x i8] c"%3.0lf, \00", align 1
@.str.293 = private unnamed_addr constant [6 x i8] c"%3s, \00", align 1
@.str.294 = private unnamed_addr constant [4 x i8] c"---\00", align 1

; Function Attrs: mustprogress nounwind uwtable
define linkonce_odr hidden noundef double @_ZNK15WorkerDataArrayIdE3getEj(ptr noundef nonnull align 8 dereferenceable(112) %0, i32 noundef %1) #1 comdat align 2 {
  %3 = alloca ptr, align 8
  %4 = alloca i32, align 4
  store ptr %0, ptr %3, align 8
  store i32 %1, ptr %4, align 4
  %5 = load ptr, ptr %3, align 8
  %6 = getelementptr inbounds %class.WorkerDataArray, ptr %5, i32 0, i32 0
  %7 = load ptr, ptr %6, align 8
  %8 = load i32, ptr %4, align 4
  %9 = zext i32 %8 to i64
  %10 = getelementptr inbounds double, ptr %7, i64 %9
  %11 = load double, ptr %10, align 8
  ret double %11
}

; Function Attrs: mustprogress nounwind uwtable
define hidden void @_ZNK22ShenandoahPhaseTimings14print_cycle_onEP12outputStream(ptr noundef nonnull align 8 dereferenceable(30352) %0, ptr noundef %1) #1 align 2 {
  %3 = alloca ptr, align 8
  %4 = alloca ptr, align 8
  %5 = alloca i32, align 4
  %6 = alloca double, align 8
  %7 = alloca double, align 8
  %8 = alloca i32, align 4
  %9 = alloca double, align 8
  store ptr %0, ptr %3, align 8
  store ptr %1, ptr %4, align 8
  %10 = load ptr, ptr %3, align 8
  %11 = load ptr, ptr %4, align 8
  call void @_ZN12outputStream2crEv(ptr noundef nonnull align 8 dereferenceable(56) %11)
  %12 = load ptr, ptr %4, align 8
  call void (ptr, ptr, ...) @_ZN12outputStream8print_crEPKcz(ptr noundef nonnull align 8 dereferenceable(56) %12, ptr noundef @.str.287)
  %13 = load ptr, ptr %4, align 8
  call void (ptr, ptr, ...) @_ZN12outputStream8print_crEPKcz(ptr noundef nonnull align 8 dereferenceable(56) %13, ptr noundef @.str.288)
  %14 = load ptr, ptr %4, align 8
  call void @_ZN12outputStream2crEv(ptr noundef nonnull align 8 dereferenceable(56) %14)
  store i32 0, ptr %5, align 4
  br label %15

15:                                               ; preds = %91, %2
  %16 = load i32, ptr %5, align 4
  %17 = icmp ult i32 %16, 316
  br i1 %17, label %18, label %94

18:                                               ; preds = %15
  %19 = getelementptr inbounds %class.ShenandoahPhaseTimings, ptr %10, i32 0, i32 1
  %20 = load i32, ptr %5, align 4
  %21 = zext i32 %20 to i64
  %22 = getelementptr inbounds [316 x double], ptr %19, i64 0, i64 %21
  %23 = load double, ptr %22, align 8
  %24 = fmul double %23, 1.000000e+06
  store double %24, ptr %6, align 8
  %25 = load double, ptr %6, align 8
  %26 = fcmp ogt double %25, 0.000000e+00
  br i1 %26, label %27, label %90

27:                                               ; preds = %18
  %28 = load ptr, ptr %4, align 8
  %29 = load i32, ptr %5, align 4
  %30 = zext i32 %29 to i64
  %31 = getelementptr inbounds [316 x ptr], ptr @_ZN22ShenandoahPhaseTimings12_phase_namesE, i64 0, i64 %30
  %32 = load ptr, ptr %31, align 8
  %33 = load double, ptr %6, align 8
  call void (ptr, ptr, ...) @_ZN12outputStream5printEPKcz(ptr noundef nonnull align 8 dereferenceable(56) %28, ptr noundef @.str.289, ptr noundef %32, double noundef %33)
  %34 = load i32, ptr %5, align 4
  %35 = call noundef zeroext i1 @_ZN22ShenandoahPhaseTimings15is_worker_phaseENS_5PhaseE(i32 noundef %34)
  br i1 %35, label %36, label %52

36:                                               ; preds = %27
  %37 = getelementptr inbounds %class.ShenandoahPhaseTimings, ptr %10, i32 0, i32 1
  %38 = load i32, ptr %5, align 4
  %39 = add i32 %38, 1
  %40 = zext i32 %39 to i64
  %41 = getelementptr inbounds [316 x double], ptr %37, i64 0, i64 %40
  %42 = load double, ptr %41, align 8
  %43 = fmul double %42, 1.000000e+06
  store double %43, ptr %7, align 8
  %44 = load double, ptr %7, align 8
  %45 = fcmp ogt double %44, 0.000000e+00
  br i1 %45, label %46, label %51

46:                                               ; preds = %36
  %47 = load ptr, ptr %4, align 8
  %48 = load double, ptr %7, align 8
  %49 = load double, ptr %6, align 8
  %50 = fdiv double %48, %49
  call void (ptr, ptr, ...) @_ZN12outputStream5printEPKcz(ptr noundef nonnull align 8 dereferenceable(56) %47, ptr noundef @.str.290, double noundef %50)
  br label %51

51:                                               ; preds = %46, %36
  br label %52

52:                                               ; preds = %51, %27
  %53 = getelementptr inbounds %class.ShenandoahPhaseTimings, ptr %10, i32 0, i32 3
  %54 = load i32, ptr %5, align 4
  %55 = zext i32 %54 to i64
  %56 = getelementptr inbounds [316 x ptr], ptr %53, i64 0, i64 %55
  %57 = load ptr, ptr %56, align 8
  %58 = icmp ne ptr %57, null
  br i1 %58, label %59, label %88

59:                                               ; preds = %52
  %60 = load ptr, ptr %4, align 8
  call void (ptr, ptr, ...) @_ZN12outputStream5printEPKcz(ptr noundef nonnull align 8 dereferenceable(56) %60, ptr noundef @.str.291)
  store i32 0, ptr %8, align 4
  br label %61

61:                                               ; preds = %84, %59
  %62 = load i32, ptr %8, align 4
  %63 = getelementptr inbounds %class.ShenandoahPhaseTimings, ptr %10, i32 0, i32 0
  %64 = load i32, ptr %63, align 8
  %65 = icmp ult i32 %62, %64
  br i1 %65, label %66, label %87

66:                                               ; preds = %61
  %67 = getelementptr inbounds %class.ShenandoahPhaseTimings, ptr %10, i32 0, i32 3
  %68 = load i32, ptr %5, align 4
  %69 = zext i32 %68 to i64
  %70 = getelementptr inbounds [316 x ptr], ptr %67, i64 0, i64 %69
  %71 = load ptr, ptr %70, align 8
  %72 = load i32, ptr %8, align 4
  %73 = call noundef double @_ZNK15WorkerDataArrayIdE3getEj(ptr noundef nonnull align 8 dereferenceable(112) %71, i32 noundef %72)
  store double %73, ptr %9, align 8
  %74 = load double, ptr %9, align 8
  %75 = call noundef double @_ZN15WorkerDataArrayIdE13uninitializedEv()
  %76 = fcmp une double %74, %75
  br i1 %76, label %77, label %81

77:                                               ; preds = %66
  %78 = load ptr, ptr %4, align 8
  %79 = load double, ptr %9, align 8
  %80 = fmul double %79, 1.000000e+06
  call void (ptr, ptr, ...) @_ZN12outputStream5printEPKcz(ptr noundef nonnull align 8 dereferenceable(56) %78, ptr noundef @.str.292, double noundef %80)
  br label %83

81:                                               ; preds = %66
  %82 = load ptr, ptr %4, align 8
  call void (ptr, ptr, ...) @_ZN12outputStream5printEPKcz(ptr noundef nonnull align 8 dereferenceable(56) %82, ptr noundef @.str.293, ptr noundef @.str.294)
  br label %83

83:                                               ; preds = %81, %77
  br label %84

84:                                               ; preds = %83
  %85 = load i32, ptr %8, align 4
  %86 = add i32 %85, 1
  store i32 %86, ptr %8, align 4
  br label %61, !llvm.loop !17

87:                                               ; preds = %61
  br label %88

88:                                               ; preds = %87, %52
  %89 = load ptr, ptr %4, align 8
  call void @_ZN12outputStream2crEv(ptr noundef nonnull align 8 dereferenceable(56) %89)
  br label %90

90:                                               ; preds = %88, %18
  br label %91

91:                                               ; preds = %90
  %92 = load i32, ptr %5, align 4
  %93 = add i32 %92, 1
  store i32 %93, ptr %5, align 4
  br label %15, !llvm.loop !18

94:                                               ; preds = %15
  ret void
}