; Function Attrs: mustprogress nounwind uwtable
define hidden void @_ZNK22ShenandoahPhaseTimings14print_cycle_onEP12outputStream(ptr nocapture noundef nonnull readonly align 8 dereferenceable(30352) %0, ptr noundef nonnull %1) local_unnamed_addr #1 align 2 {
  tail call void @_ZN12outputStream2crEv(ptr noundef nonnull align 8 dereferenceable(56) %1) #12
  tail call void (ptr, ptr, ...) @_ZN12outputStream8print_crEPKcz(ptr noundef nonnull align 8 dereferenceable(56) %1, ptr noundef nonnull @.str.287) #12
  tail call void (ptr, ptr, ...) @_ZN12outputStream8print_crEPKcz(ptr noundef nonnull align 8 dereferenceable(56) %1, ptr noundef nonnull @.str.288) #12
  tail call void @_ZN12outputStream2crEv(ptr noundef nonnull align 8 dereferenceable(56) %1) #12
  %3 = getelementptr inbounds i8, ptr %0, i64 8
  %4 = getelementptr inbounds i8, ptr %0, i64 27816
  br label %5

5:                                                ; preds = %2, %41
  %indvars.iv37 = phi i64 [ 0, %2 ], [ %indvars.iv.next38, %41 ]
  %6 = getelementptr inbounds [316 x double], ptr %3, i64 0, i64 %indvars.iv37
  %7 = load double, ptr %6, align 8
  %8 = fmul double %7, 1.000000e+06
  %9 = fcmp ogt double %8, 0.000000e+00
  br i1 %9, label %10, label %41

10:                                               ; preds = %5
  %11 = getelementptr inbounds [316 x ptr], ptr @_ZN22ShenandoahPhaseTimings12_phase_namesE, i64 0, i64 %indvars.iv37
  %12 = load ptr, ptr %11, align 8
  tail call void (ptr, ptr, ...) @_ZN12outputStream5printEPKcz(ptr noundef nonnull align 8 dereferenceable(56) %1, ptr noundef nonnull @.str.289, ptr noundef %12, double noundef %8) #12
  %13 = trunc nuw nsw i64 %indvars.iv37 to i32
  %14 = tail call noundef zeroext i1 @_ZN22ShenandoahPhaseTimings15is_worker_phaseENS_5PhaseE(i32 noundef %13)
  br i1 %14, label %15, label %23

15:                                               ; preds = %10
  %16 = add nuw nsw i64 %indvars.iv37, 1
  %17 = getelementptr inbounds [316 x double], ptr %3, i64 0, i64 %16
  %18 = load double, ptr %17, align 8
  %19 = fmul double %18, 1.000000e+06
  %20 = fcmp ogt double %19, 0.000000e+00
  br i1 %20, label %21, label %23

21:                                               ; preds = %15
  %22 = fdiv double %19, %8
  tail call void (ptr, ptr, ...) @_ZN12outputStream5printEPKcz(ptr noundef nonnull align 8 dereferenceable(56) %1, ptr noundef nonnull @.str.290, double noundef %22) #12
  br label %23

23:                                               ; preds = %15, %21, %10
  %24 = getelementptr inbounds [316 x ptr], ptr %4, i64 0, i64 %indvars.iv37
  %25 = load ptr, ptr %24, align 8
  %.not = icmp eq ptr %25, null
  br i1 %.not, label %.loopexit, label %26

26:                                               ; preds = %23
  tail call void (ptr, ptr, ...) @_ZN12outputStream5printEPKcz(ptr noundef nonnull align 8 dereferenceable(56) %1, ptr noundef nonnull @.str.291) #12
  %27 = load i32, ptr %0, align 8
  %.not35 = icmp eq i32 %27, 0
  br i1 %.not35, label %.loopexit, label %.lr.ph

.lr.ph:                                           ; preds = %26, %37
  %indvars.iv = phi i64 [ %indvars.iv.next, %37 ], [ 0, %26 ]
  %28 = load ptr, ptr %24, align 8
  %29 = load ptr, ptr %28, align 8
  %30 = getelementptr inbounds double, ptr %29, i64 %indvars.iv
  %31 = load double, ptr %30, align 8
  %32 = tail call noundef double @_ZN15WorkerDataArrayIdE13uninitializedEv() #12
  %33 = fcmp une double %31, %32
  br i1 %33, label %34, label %36

34:                                               ; preds = %.lr.ph
  %35 = fmul double %31, 1.000000e+06
  tail call void (ptr, ptr, ...) @_ZN12outputStream5printEPKcz(ptr noundef nonnull align 8 dereferenceable(56) %1, ptr noundef nonnull @.str.292, double noundef %35) #12
  br label %37

36:                                               ; preds = %.lr.ph
  tail call void (ptr, ptr, ...) @_ZN12outputStream5printEPKcz(ptr noundef nonnull align 8 dereferenceable(56) %1, ptr noundef nonnull @.str.293, ptr noundef nonnull @.str.294) #12
  br label %37

37:                                               ; preds = %34, %36
  %indvars.iv.next = add nuw nsw i64 %indvars.iv, 1
  %38 = load i32, ptr %0, align 8
  %39 = zext i32 %38 to i64
  %40 = icmp ult i64 %indvars.iv.next, %39
  br i1 %40, label %.lr.ph, label %.loopexit, !llvm.loop !19

.loopexit:                                        ; preds = %37, %26, %23
  tail call void @_ZN12outputStream2crEv(ptr noundef nonnull align 8 dereferenceable(56) %1) #12
  br label %41

41:                                               ; preds = %5, %.loopexit
  %indvars.iv.next38 = add nuw nsw i64 %indvars.iv37, 1
  %exitcond.not = icmp eq i64 %indvars.iv.next38, 316
  br i1 %exitcond.not, label %42, label %5, !llvm.loop !20

42:                                               ; preds = %41
  ret void
}